target datalayout = "e-m:e-p270:32:32-p271:32:32-p272:64:64-i64:64-i128:128-f80:128-n8:16:32:64-S128"
target triple = "x86_64-pc-linux-gnu"

%struct._typeobject = type { %struct.PyVarObject, ptr, i64, i64, ptr, i64, ptr, ptr, ptr, ptr, ptr, ptr, ptr, ptr, ptr, ptr, ptr, ptr, ptr, i64, ptr, ptr, ptr, ptr, i64, ptr, ptr, ptr, ptr, ptr, ptr, ptr, ptr, ptr, i64, ptr, ptr, ptr, ptr, ptr, ptr, ptr, ptr, ptr, ptr, ptr, i32, ptr, ptr, i8, i16 }
%struct.PyVarObject = type { %struct._object, i64 }
%struct._object = type { %union.anon, ptr }
%union.anon = type { i64 }
%struct.PyASCIIObject = type { %struct._object, i64, i64, %struct.anon.46 }
%struct.anon.46 = type { i16, i16 }
%struct.anon = type { i32, i32 }

@PyUnicode_Type = external global %struct._typeobject, align 8

; Function Attrs: inlinehint nounwind uwtable
define internal ptr @_Py_TYPE(ptr noundef %0) #2 {
  %2 = alloca ptr, align 8
  store ptr %0, ptr %2, align 8, !tbaa !27
  %3 = load ptr, ptr %2, align 8, !tbaa !27
  %4 = getelementptr inbounds nuw %struct._object, ptr %3, i32 0, i32 1
  %5 = load ptr, ptr %4, align 8, !tbaa !65
  ret ptr %5
}

; Function Attrs: inlinehint nounwind uwtable
define internal i32 @Py_IS_TYPE(ptr noundef %0, ptr noundef %1) #2 {
  %3 = alloca ptr, align 8
  %4 = alloca ptr, align 8
  store ptr %0, ptr %3, align 8, !tbaa !27
  store ptr %1, ptr %4, align 8, !tbaa !56
  %5 = load ptr, ptr %3, align 8, !tbaa !27
  %6 = call ptr @_Py_TYPE(ptr noundef %5)
  %7 = load ptr, ptr %4, align 8, !tbaa !56
  %8 = icmp eq ptr %6, %7
  %9 = zext i1 %8 to i32
  ret i32 %9
}

; Function Attrs: alwaysinline nounwind uwtable
define internal i32 @_Py_IsImmortal(ptr noundef %0) #6 {
  %2 = alloca ptr, align 8
  store ptr %0, ptr %2, align 8, !tbaa !27
  %3 = load ptr, ptr %2, align 8, !tbaa !27
  %4 = getelementptr inbounds nuw %struct._object, ptr %3, i32 0, i32 0
  %5 = getelementptr inbounds nuw %struct.anon, ptr %4, i32 0, i32 0
  %6 = load i32, ptr %5, align 8, !tbaa !38
  %7 = icmp slt i32 %6, 0
  %8 = zext i1 %7 to i32
  ret i32 %8
}

; Function Attrs: nounwind uwtable
define dso_local i32 @_PyDict_DelItem_KnownHash(ptr noundef %0, ptr noundef %1, i64 noundef %2) #0 {
  %4 = alloca ptr, align 8
  %5 = alloca ptr, align 8
  %6 = alloca i64, align 8
  %7 = alloca i32, align 4
  store ptr %0, ptr %4, align 8, !tbaa !27
  store ptr %1, ptr %5, align 8, !tbaa !27
  store i64 %2, ptr %6, align 8, !tbaa !39
  call void @llvm.lifetime.start.p0(i64 4, ptr %7) #10
  %8 = load ptr, ptr %4, align 8, !tbaa !27
  %9 = load ptr, ptr %5, align 8, !tbaa !27
  %10 = load i64, ptr %6, align 8, !tbaa !39
  %11 = call i32 @delitem_knownhash_lock_held(ptr noundef %8, ptr noundef %9, i64 noundef %10)
  store i32 %11, ptr %7, align 4, !tbaa !28
  %12 = load i32, ptr %7, align 4, !tbaa !28
  call void @llvm.lifetime.end.p0(i64 4, ptr %7) #10
  ret i32 %12
}

; Function Attrs: inlinehint nounwind uwtable
define internal i64 @_PyObject_HashFast(ptr noundef %0) #2 {
  %2 = alloca i64, align 8
  %3 = alloca ptr, align 8
  %4 = alloca i64, align 8
  %5 = alloca i32, align 4
  store ptr %0, ptr %3, align 8, !tbaa !27
  %6 = load ptr, ptr %3, align 8, !tbaa !27
  %7 = call i32 @Py_IS_TYPE(ptr noundef %6, ptr noundef @PyUnicode_Type)
  %8 = icmp ne i32 %7, 0
  br i1 %8, label %9, label %21

9:                                                ; preds = %1
  call void @llvm.lifetime.start.p0(i64 8, ptr %4) #10
  %10 = load ptr, ptr %3, align 8, !tbaa !27
  %11 = getelementptr inbounds nuw %struct.PyASCIIObject, ptr %10, i32 0, i32 2
  %12 = load i64, ptr %11, align 8, !tbaa !67
  store i64 %12, ptr %4, align 8, !tbaa !39
  %13 = load i64, ptr %4, align 8, !tbaa !39
  %14 = icmp ne i64 %13, -1
  br i1 %14, label %15, label %17

15:                                               ; preds = %9
  %16 = load i64, ptr %4, align 8, !tbaa !39
  store i64 %16, ptr %2, align 8
  store i32 1, ptr %5, align 4
  br label %18

17:                                               ; preds = %9
  store i32 0, ptr %5, align 4
  br label %18

18:                                               ; preds = %17, %15
  call void @llvm.lifetime.end.p0(i64 8, ptr %4) #10
  %19 = load i32, ptr %5, align 4
  switch i32 %19, label %26 [
    i32 0, label %20
    i32 1, label %24
  ]

20:                                               ; preds = %18
  br label %21

21:                                               ; preds = %20, %1
  %22 = load ptr, ptr %3, align 8, !tbaa !27
  %23 = call i64 @PyObject_Hash(ptr noundef %22)
  store i64 %23, ptr %2, align 8
  br label %24

24:                                               ; preds = %21, %18
  %25 = load i64, ptr %2, align 8
  ret i64 %25

26:                                               ; preds = %18
  unreachable
}

; Function Attrs: alwaysinline nounwind uwtable
define internal void @Py_DECREF(ptr noundef %0) #6 {
  %2 = alloca ptr, align 8
  store ptr %0, ptr %2, align 8, !tbaa !27
  %3 = load ptr, ptr %2, align 8, !tbaa !27
  %4 = call i32 @_Py_IsImmortal(ptr noundef %3)
  %5 = icmp ne i32 %4, 0
  br i1 %5, label %6, label %7

6:                                                ; preds = %1
  br label %16

7:                                                ; preds = %1
  %8 = load ptr, ptr %2, align 8, !tbaa !27
  %9 = getelementptr inbounds nuw %struct._object, ptr %8, i32 0, i32 0
  %10 = getelementptr inbounds nuw %struct.anon, ptr %9, i32 0, i32 0
  %11 = load i32, ptr %10, align 8, !tbaa !38
  %12 = add i32 %11, -1
  store i32 %12, ptr %10, align 8, !tbaa !38
  %13 = icmp eq i32 %12, 0
  br i1 %13, label %14, label %16

14:                                               ; preds = %7
  %15 = load ptr, ptr %2, align 8, !tbaa !27
  call void @_Py_Dealloc(ptr noundef %15)
  br label %16

16:                                               ; preds = %6, %14, %7
  ret void
}

; Function Attrs: nounwind uwtable
define dso_local i32 @PyDict_DelItem(ptr noundef %0, ptr noundef %1) #0 {
  %3 = alloca i32, align 4
  %4 = alloca ptr, align 8
  %5 = alloca ptr, align 8
  %6 = alloca i64, align 8
  %7 = alloca i32, align 4
  store ptr %0, ptr %4, align 8, !tbaa !27
  store ptr %1, ptr %5, align 8, !tbaa !27
  call void @llvm.lifetime.start.p0(i64 8, ptr %6) #10
  %8 = load ptr, ptr %5, align 8, !tbaa !27
  %9 = call i64 @_PyObject_HashFast(ptr noundef %8)
  store i64 %9, ptr %6, align 8, !tbaa !39
  %10 = load i64, ptr %6, align 8, !tbaa !39
  %11 = icmp eq i64 %10, -1
  br i1 %11, label %12, label %13

12:                                               ; preds = %2
  store i32 -1, ptr %3, align 4
  store i32 1, ptr %7, align 4
  br label %18

13:                                               ; preds = %2
  %14 = load ptr, ptr %4, align 8, !tbaa !27
  %15 = load ptr, ptr %5, align 8, !tbaa !27
  %16 = load i64, ptr %6, align 8, !tbaa !39
  %17 = call i32 @_PyDict_DelItem_KnownHash(ptr noundef %14, ptr noundef %15, i64 noundef %16)
  store i32 %17, ptr %3, align 4
  store i32 1, ptr %7, align 4
  br label %18

18:                                               ; preds = %13, %12
  call void @llvm.lifetime.end.p0(i64 8, ptr %6) #10
  %19 = load i32, ptr %3, align 4
  ret i32 %19
}

; Function Attrs: nounwind uwtable
define dso_local i32 @PyDict_DelItemString(ptr noundef %0, ptr noundef %1) #0 {
  %3 = alloca i32, align 4
  %4 = alloca ptr, align 8
  %5 = alloca ptr, align 8
  %6 = alloca ptr, align 8
  %7 = alloca i32, align 4
  %8 = alloca i32, align 4
  store ptr %0, ptr %4, align 8, !tbaa !27
  store ptr %1, ptr %5, align 8, !tbaa !70
  call void @llvm.lifetime.start.p0(i64 8, ptr %6) #10
  call void @llvm.lifetime.start.p0(i64 4, ptr %7) #10
  %9 = load ptr, ptr %5, align 8, !tbaa !70
  %10 = call ptr @PyUnicode_FromString(ptr noundef %9)
  store ptr %10, ptr %6, align 8, !tbaa !27
  %11 = load ptr, ptr %6, align 8, !tbaa !27
  %12 = icmp eq ptr %11, null
  br i1 %12, label %13, label %14

13:                                               ; preds = %2
  store i32 -1, ptr %3, align 4
  store i32 1, ptr %8, align 4
  br label %20

14:                                               ; preds = %2
  %15 = load ptr, ptr %4, align 8, !tbaa !27
  %16 = load ptr, ptr %6, align 8, !tbaa !27
  %17 = call i32 @PyDict_DelItem(ptr noundef %15, ptr noundef %16)
  store i32 %17, ptr %7, align 4, !tbaa !28
  %18 = load ptr, ptr %6, align 8, !tbaa !27
  call void @Py_DECREF(ptr noundef %18)
  %19 = load i32, ptr %7, align 4, !tbaa !28
  store i32 %19, ptr %3, align 4
  store i32 1, ptr %8, align 4
  br label %20

20:                                               ; preds = %14, %13
  call void @llvm.lifetime.end.p0(i64 4, ptr %7) #10
  call void @llvm.lifetime.end.p0(i64 8, ptr %6) #10
  %21 = load i32, ptr %3, align 4
  ret i32 %21
}