; Function Attrs: nounwind uwtable
define dso_local range(i32 -1, 1) i32 @PyDict_DelItemString(ptr noundef %0, ptr noundef %1) local_unnamed_addr #0 {
  %3 = tail call ptr @PyUnicode_FromString(ptr noundef %1) #23
  %4 = icmp eq ptr %3, null
  br i1 %4, label %Py_DECREF.exit, label %5

5:                                                ; preds = %2
  %6 = getelementptr i8, ptr %3, i64 8
  %.val.i.i = load ptr, ptr %6, align 8, !tbaa !25
  %.not.i.i = icmp eq ptr %.val.i.i, @PyUnicode_Type
  br i1 %.not.i.i, label %7, label %_PyObject_HashFast.exit.i

7:                                                ; preds = %5
  %8 = getelementptr inbounds nuw i8, ptr %3, i64 24
  %9 = load i64, ptr %8, align 8, !tbaa !55
  %.not7.not.i.i = icmp eq i64 %9, -1
  br i1 %.not7.not.i.i, label %_PyObject_HashFast.exit.i, label %_PyObject_HashFast.exit.thread.i

_PyObject_HashFast.exit.i:                        ; preds = %7, %5
  %10 = tail call i64 @PyObject_Hash(ptr noundef nonnull %3) #23
  %11 = icmp eq i64 %10, -1
  br i1 %11, label %PyDict_DelItem.exit, label %_PyObject_HashFast.exit.thread.i

_PyObject_HashFast.exit.thread.i:                 ; preds = %_PyObject_HashFast.exit.i, %7
  %.1.i7.i = phi i64 [ %10, %_PyObject_HashFast.exit.i ], [ %9, %7 ]
  %12 = tail call fastcc range(i32 -1, 1) i32 @delitem_knownhash_lock_held(ptr noundef %0, ptr noundef nonnull %3, i64 noundef %.1.i7.i)
  br label %PyDict_DelItem.exit

PyDict_DelItem.exit:                              ; preds = %_PyObject_HashFast.exit.i, %_PyObject_HashFast.exit.thread.i
  %.0.i = phi i32 [ %12, %_PyObject_HashFast.exit.thread.i ], [ -1, %_PyObject_HashFast.exit.i ]
  %13 = load i32, ptr %3, align 8, !tbaa !41
  %.not.i = icmp sgt i32 %13, -1
  br i1 %.not.i, label %14, label %Py_DECREF.exit

14:                                               ; preds = %PyDict_DelItem.exit
  %15 = add nsw i32 %13, -1
  store i32 %15, ptr %3, align 8, !tbaa !41
  %16 = icmp eq i32 %15, 0
  br i1 %16, label %17, label %Py_DECREF.exit

17:                                               ; preds = %14
  tail call void @_Py_Dealloc(ptr noundef nonnull %3) #23
  br label %Py_DECREF.exit

Py_DECREF.exit:                                   ; preds = %17, %14, %PyDict_DelItem.exit, %2
  %.0 = phi i32 [ -1, %2 ], [ %.0.i, %PyDict_DelItem.exit ], [ %.0.i, %14 ], [ %.0.i, %17 ]
  ret i32 %.0
}